target datalayout = "e-m:e-p270:32:32-p271:32:32-p272:64:64-i64:64-i128:128-f80:128-n8:16:32:64-S128"
target triple = "x86_64-pc-linux-gnu"

%struct.DdNode = type { i32, i32, ptr, %union.anon, i64 }
%union.anon = type { %struct.DdChildren }
%struct.DdChildren = type { ptr, ptr }
%struct.DdManager = type { %struct.DdNode, ptr, ptr, ptr, ptr, ptr, ptr, ptr, i32, i32, double, double, double, i32, i32, i32, i32, i32, i32, ptr, ptr, %struct.DdSubtable, i32, i32, i32, i32, i32, i32, i32, double, i32, i32, i32, ptr, i64, double, i32, ptr, ptr, ptr, ptr, ptr, ptr, ptr, i32, ptr, ptr, ptr, ptr, ptr, ptr, i32, i32, i32, double, i32, i32, i32, i32, double, double, i32, i32, i32, i32, i32, i32, i32, i32, i32, ptr, ptr, i32, i32, i32, i32, i32, i32, ptr, ptr, ptr, ptr, ptr, ptr, ptr, ptr, i32, i64, i64, i64, i32, i64, i64, double, double, double, double, double, double, i32, ptr, ptr, i64 }
%struct.DdSubtable = type { ptr, i32, i32, i32, i32, i32, i32, i32, i32, i32, i32, i32 }

@.str = private unnamed_addr constant [18 x i8] c"Offending nodes:\0A\00", align 1
@.str.1 = private unnamed_addr constant [34 x i8] c"f: address = %p\09 value = %40.30f\0A\00", align 1
@.str.2 = private unnamed_addr constant [34 x i8] c"g: address = %p\09 value = %40.30f\0A\00", align 1

; Function Attrs: nounwind uwtable
define i32 @Cudd_EqualSupNorm(ptr noundef %0, ptr noundef %1, ptr noundef %2, double noundef %3, i32 noundef %4) #0 {
  %6 = alloca i32, align 4
  %7 = alloca ptr, align 8
  %8 = alloca ptr, align 8
  %9 = alloca ptr, align 8
  %10 = alloca double, align 8
  %11 = alloca i32, align 4
  %12 = alloca ptr, align 8
  %13 = alloca ptr, align 8
  %14 = alloca ptr, align 8
  %15 = alloca ptr, align 8
  %16 = alloca ptr, align 8
  %17 = alloca i32, align 4
  %18 = alloca i32, align 4
  %19 = alloca i32, align 4
  store ptr %0, ptr %7, align 8, !tbaa !3
  store ptr %1, ptr %8, align 8, !tbaa !8
  store ptr %2, ptr %9, align 8, !tbaa !8
  store double %3, ptr %10, align 8, !tbaa !56
  store i32 %4, ptr %11, align 4, !tbaa !12
  call void @llvm.lifetime.start.p0(i64 8, ptr %12) #6
  call void @llvm.lifetime.start.p0(i64 8, ptr %13) #6
  call void @llvm.lifetime.start.p0(i64 8, ptr %14) #6
  call void @llvm.lifetime.start.p0(i64 8, ptr %15) #6
  call void @llvm.lifetime.start.p0(i64 8, ptr %16) #6
  call void @llvm.lifetime.start.p0(i64 4, ptr %17) #6
  call void @llvm.lifetime.start.p0(i64 4, ptr %18) #6
  %20 = load ptr, ptr %8, align 8, !tbaa !8
  %21 = load ptr, ptr %9, align 8, !tbaa !8
  %22 = icmp eq ptr %20, %21
  br i1 %22, label %23, label %24

23:                                               ; preds = %5
  store i32 1, ptr %6, align 4
  store i32 1, ptr %19, align 4
  br label %199

24:                                               ; preds = %5
  %25 = load ptr, ptr %8, align 8, !tbaa !8
  %26 = ptrtoint ptr %25 to i64
  %27 = and i64 %26, -2
  %28 = inttoptr i64 %27 to ptr
  %29 = getelementptr inbounds nuw %struct.DdNode, ptr %28, i32 0, i32 0
  %30 = load i32, ptr %29, align 8, !tbaa !14
  %31 = icmp eq i32 %30, 2147483647
  br i1 %31, label %32, label %96

32:                                               ; preds = %24
  %33 = load ptr, ptr %9, align 8, !tbaa !8
  %34 = ptrtoint ptr %33 to i64
  %35 = and i64 %34, -2
  %36 = inttoptr i64 %35 to ptr
  %37 = getelementptr inbounds nuw %struct.DdNode, ptr %36, i32 0, i32 0
  %38 = load i32, ptr %37, align 8, !tbaa !14
  %39 = icmp eq i32 %38, 2147483647
  br i1 %39, label %40, label %96

40:                                               ; preds = %32
  %41 = load ptr, ptr %8, align 8, !tbaa !8
  %42 = getelementptr inbounds nuw %struct.DdNode, ptr %41, i32 0, i32 3
  %43 = load double, ptr %42, align 8, !tbaa !17
  %44 = load ptr, ptr %9, align 8, !tbaa !8
  %45 = getelementptr inbounds nuw %struct.DdNode, ptr %44, i32 0, i32 3
  %46 = load double, ptr %45, align 8, !tbaa !17
  %47 = fsub double %43, %46
  %48 = fcmp olt double %47, 0.000000e+00
  br i1 %48, label %49, label %58

49:                                               ; preds = %40
  %50 = load ptr, ptr %8, align 8, !tbaa !8
  %51 = getelementptr inbounds nuw %struct.DdNode, ptr %50, i32 0, i32 3
  %52 = load double, ptr %51, align 8, !tbaa !17
  %53 = load ptr, ptr %9, align 8, !tbaa !8
  %54 = getelementptr inbounds nuw %struct.DdNode, ptr %53, i32 0, i32 3
  %55 = load double, ptr %54, align 8, !tbaa !17
  %56 = fsub double %52, %55
  %57 = fneg double %56
  br label %66

58:                                               ; preds = %40
  %59 = load ptr, ptr %8, align 8, !tbaa !8
  %60 = getelementptr inbounds nuw %struct.DdNode, ptr %59, i32 0, i32 3
  %61 = load double, ptr %60, align 8, !tbaa !17
  %62 = load ptr, ptr %9, align 8, !tbaa !8
  %63 = getelementptr inbounds nuw %struct.DdNode, ptr %62, i32 0, i32 3
  %64 = load double, ptr %63, align 8, !tbaa !17
  %65 = fsub double %61, %64
  br label %66

66:                                               ; preds = %58, %49
  %67 = phi double [ %57, %49 ], [ %65, %58 ]
  %68 = load double, ptr %10, align 8, !tbaa !56
  %69 = fcmp olt double %67, %68
  br i1 %69, label %70, label %71

70:                                               ; preds = %66
  store i32 1, ptr %6, align 4
  store i32 1, ptr %19, align 4
  br label %199

71:                                               ; preds = %66
  %72 = load i32, ptr %11, align 4, !tbaa !12
  %73 = icmp sgt i32 %72, 0
  br i1 %73, label %74, label %95

74:                                               ; preds = %71
  %75 = load ptr, ptr %7, align 8, !tbaa !3
  %76 = getelementptr inbounds nuw %struct.DdManager, ptr %75, i32 0, i32 84
  %77 = load ptr, ptr %76, align 8, !tbaa !57
  %78 = call i32 (ptr, ptr, ...) @fprintf(ptr noundef %77, ptr noundef @.str) #6
  %79 = load ptr, ptr %7, align 8, !tbaa !3
  %80 = getelementptr inbounds nuw %struct.DdManager, ptr %79, i32 0, i32 84
  %81 = load ptr, ptr %80, align 8, !tbaa !57
  %82 = load ptr, ptr %8, align 8, !tbaa !8
  %83 = load ptr, ptr %8, align 8, !tbaa !8
  %84 = getelementptr inbounds nuw %struct.DdNode, ptr %83, i32 0, i32 3
  %85 = load double, ptr %84, align 8, !tbaa !17
  %86 = call i32 (ptr, ptr, ...) @fprintf(ptr noundef %81, ptr noundef @.str.1, ptr noundef %82, double noundef %85) #6
  %87 = load ptr, ptr %7, align 8, !tbaa !3
  %88 = getelementptr inbounds nuw %struct.DdManager, ptr %87, i32 0, i32 84
  %89 = load ptr, ptr %88, align 8, !tbaa !57
  %90 = load ptr, ptr %9, align 8, !tbaa !8
  %91 = load ptr, ptr %9, align 8, !tbaa !8
  %92 = getelementptr inbounds nuw %struct.DdNode, ptr %91, i32 0, i32 3
  %93 = load double, ptr %92, align 8, !tbaa !17
  %94 = call i32 (ptr, ptr, ...) @fprintf(ptr noundef %89, ptr noundef @.str.2, ptr noundef %90, double noundef %93) #6
  br label %95

95:                                               ; preds = %74, %71
  store i32 0, ptr %6, align 4
  store i32 1, ptr %19, align 4
  br label %199

96:                                               ; preds = %32, %24
  %97 = load ptr, ptr %7, align 8, !tbaa !3
  %98 = load ptr, ptr %8, align 8, !tbaa !8
  %99 = load ptr, ptr %9, align 8, !tbaa !8
  %100 = call ptr @cuddCacheLookup2(ptr noundef %97, ptr noundef @Cudd_EqualSupNorm, ptr noundef %98, ptr noundef %99)
  store ptr %100, ptr %16, align 8, !tbaa !8
  %101 = load ptr, ptr %16, align 8, !tbaa !8
  %102 = icmp ne ptr %101, null
  br i1 %102, label %103, label %104

103:                                              ; preds = %96
  store i32 1, ptr %6, align 4
  store i32 1, ptr %19, align 4
  br label %199

104:                                              ; preds = %96
  %105 = load ptr, ptr %8, align 8, !tbaa !8
  %106 = getelementptr inbounds nuw %struct.DdNode, ptr %105, i32 0, i32 0
  %107 = load i32, ptr %106, align 8, !tbaa !14
  %108 = icmp eq i32 %107, 2147483647
  br i1 %108, label %109, label %113

109:                                              ; preds = %104
  %110 = load ptr, ptr %8, align 8, !tbaa !8
  %111 = getelementptr inbounds nuw %struct.DdNode, ptr %110, i32 0, i32 0
  %112 = load i32, ptr %111, align 8, !tbaa !14
  br label %123

113:                                              ; preds = %104
  %114 = load ptr, ptr %7, align 8, !tbaa !3
  %115 = getelementptr inbounds nuw %struct.DdManager, ptr %114, i32 0, i32 37
  %116 = load ptr, ptr %115, align 8, !tbaa !54
  %117 = load ptr, ptr %8, align 8, !tbaa !8
  %118 = getelementptr inbounds nuw %struct.DdNode, ptr %117, i32 0, i32 0
  %119 = load i32, ptr %118, align 8, !tbaa !14
  %120 = zext i32 %119 to i64
  %121 = getelementptr inbounds nuw i32, ptr %116, i64 %120
  %122 = load i32, ptr %121, align 4, !tbaa !12
  br label %123

123:                                              ; preds = %113, %109
  %124 = phi i32 [ %112, %109 ], [ %122, %113 ]
  store i32 %124, ptr %17, align 4, !tbaa !12
  %125 = load ptr, ptr %9, align 8, !tbaa !8
  %126 = getelementptr inbounds nuw %struct.DdNode, ptr %125, i32 0, i32 0
  %127 = load i32, ptr %126, align 8, !tbaa !14
  %128 = icmp eq i32 %127, 2147483647
  br i1 %128, label %129, label %133

129:                                              ; preds = %123
  %130 = load ptr, ptr %9, align 8, !tbaa !8
  %131 = getelementptr inbounds nuw %struct.DdNode, ptr %130, i32 0, i32 0
  %132 = load i32, ptr %131, align 8, !tbaa !14
  br label %143

133:                                              ; preds = %123
  %134 = load ptr, ptr %7, align 8, !tbaa !3
  %135 = getelementptr inbounds nuw %struct.DdManager, ptr %134, i32 0, i32 37
  %136 = load ptr, ptr %135, align 8, !tbaa !54
  %137 = load ptr, ptr %9, align 8, !tbaa !8
  %138 = getelementptr inbounds nuw %struct.DdNode, ptr %137, i32 0, i32 0
  %139 = load i32, ptr %138, align 8, !tbaa !14
  %140 = zext i32 %139 to i64
  %141 = getelementptr inbounds nuw i32, ptr %136, i64 %140
  %142 = load i32, ptr %141, align 4, !tbaa !12
  br label %143

143:                                              ; preds = %133, %129
  %144 = phi i32 [ %132, %129 ], [ %142, %133 ]
  store i32 %144, ptr %18, align 4, !tbaa !12
  %145 = load i32, ptr %17, align 4, !tbaa !12
  %146 = load i32, ptr %18, align 4, !tbaa !12
  %147 = icmp ule i32 %145, %146
  br i1 %147, label %148, label %157

148:                                              ; preds = %143
  %149 = load ptr, ptr %8, align 8, !tbaa !8
  %150 = getelementptr inbounds nuw %struct.DdNode, ptr %149, i32 0, i32 3
  %151 = getelementptr inbounds nuw %struct.DdChildren, ptr %150, i32 0, i32 0
  %152 = load ptr, ptr %151, align 8, !tbaa !17
  store ptr %152, ptr %12, align 8, !tbaa !8
  %153 = load ptr, ptr %8, align 8, !tbaa !8
  %154 = getelementptr inbounds nuw %struct.DdNode, ptr %153, i32 0, i32 3
  %155 = getelementptr inbounds nuw %struct.DdChildren, ptr %154, i32 0, i32 1
  %156 = load ptr, ptr %155, align 8, !tbaa !17
  store ptr %156, ptr %13, align 8, !tbaa !8
  br label %159

157:                                              ; preds = %143
  %158 = load ptr, ptr %8, align 8, !tbaa !8
  store ptr %158, ptr %13, align 8, !tbaa !8
  store ptr %158, ptr %12, align 8, !tbaa !8
  br label %159

159:                                              ; preds = %157, %148
  %160 = load i32, ptr %18, align 4, !tbaa !12
  %161 = load i32, ptr %17, align 4, !tbaa !12
  %162 = icmp ule i32 %160, %161
  br i1 %162, label %163, label %172

163:                                              ; preds = %159
  %164 = load ptr, ptr %9, align 8, !tbaa !8
  %165 = getelementptr inbounds nuw %struct.DdNode, ptr %164, i32 0, i32 3
  %166 = getelementptr inbounds nuw %struct.DdChildren, ptr %165, i32 0, i32 0
  %167 = load ptr, ptr %166, align 8, !tbaa !17
  store ptr %167, ptr %14, align 8, !tbaa !8
  %168 = load ptr, ptr %9, align 8, !tbaa !8
  %169 = getelementptr inbounds nuw %struct.DdNode, ptr %168, i32 0, i32 3
  %170 = getelementptr inbounds nuw %struct.DdChildren, ptr %169, i32 0, i32 1
  %171 = load ptr, ptr %170, align 8, !tbaa !17
  store ptr %171, ptr %15, align 8, !tbaa !8
  br label %174

172:                                              ; preds = %159
  %173 = load ptr, ptr %9, align 8, !tbaa !8
  store ptr %173, ptr %15, align 8, !tbaa !8
  store ptr %173, ptr %14, align 8, !tbaa !8
  br label %174

174:                                              ; preds = %172, %163
  %175 = load ptr, ptr %7, align 8, !tbaa !3
  %176 = load ptr, ptr %12, align 8, !tbaa !8
  %177 = load ptr, ptr %14, align 8, !tbaa !8
  %178 = load double, ptr %10, align 8, !tbaa !56
  %179 = load i32, ptr %11, align 4, !tbaa !12
  %180 = call i32 @Cudd_EqualSupNorm(ptr noundef %175, ptr noundef %176, ptr noundef %177, double noundef %178, i32 noundef %179)
  %181 = icmp ne i32 %180, 0
  br i1 %181, label %183, label %182

182:                                              ; preds = %174
  store i32 0, ptr %6, align 4
  store i32 1, ptr %19, align 4
  br label %199

183:                                              ; preds = %174
  %184 = load ptr, ptr %7, align 8, !tbaa !3
  %185 = load ptr, ptr %13, align 8, !tbaa !8
  %186 = load ptr, ptr %15, align 8, !tbaa !8
  %187 = load double, ptr %10, align 8, !tbaa !56
  %188 = load i32, ptr %11, align 4, !tbaa !12
  %189 = call i32 @Cudd_EqualSupNorm(ptr noundef %184, ptr noundef %185, ptr noundef %186, double noundef %187, i32 noundef %188)
  %190 = icmp ne i32 %189, 0
  br i1 %190, label %192, label %191

191:                                              ; preds = %183
  store i32 0, ptr %6, align 4
  store i32 1, ptr %19, align 4
  br label %199

192:                                              ; preds = %183
  %193 = load ptr, ptr %7, align 8, !tbaa !3
  %194 = load ptr, ptr %8, align 8, !tbaa !8
  %195 = load ptr, ptr %9, align 8, !tbaa !8
  %196 = load ptr, ptr %7, align 8, !tbaa !3
  %197 = getelementptr inbounds nuw %struct.DdManager, ptr %196, i32 0, i32 1
  %198 = load ptr, ptr %197, align 8, !tbaa !20
  call void @cuddCacheInsert2(ptr noundef %193, ptr noundef @Cudd_EqualSupNorm, ptr noundef %194, ptr noundef %195, ptr noundef %198)
  store i32 1, ptr %6, align 4
  store i32 1, ptr %19, align 4
  br label %199

199:                                              ; preds = %192, %191, %182, %103, %95, %70, %23
  call void @llvm.lifetime.end.p0(i64 4, ptr %18) #6
  call void @llvm.lifetime.end.p0(i64 4, ptr %17) #6
  call void @llvm.lifetime.end.p0(i64 8, ptr %16) #6
  call void @llvm.lifetime.end.p0(i64 8, ptr %15) #6
  call void @llvm.lifetime.end.p0(i64 8, ptr %14) #6
  call void @llvm.lifetime.end.p0(i64 8, ptr %13) #6
  call void @llvm.lifetime.end.p0(i64 8, ptr %12) #6
  %200 = load i32, ptr %6, align 4
  ret i32 %200
}