; Function Attrs: nounwind uwtable
define range(i32 0, 2) i32 @Cudd_EqualSupNorm(ptr noundef %0, ptr noundef %1, ptr noundef %2, double noundef %3, i32 noundef %4) #2 {
  %6 = icmp eq ptr %1, %2
  br i1 %6, label %82, label %7

7:                                                ; preds = %5
  %8 = ptrtoint ptr %1 to i64
  %9 = and i64 %8, -2
  %10 = inttoptr i64 %9 to ptr
  %11 = load i32, ptr %10, align 8, !tbaa !3
  %12 = icmp eq i32 %11, 2147483647
  br i1 %12, label %13, label %41

13:                                               ; preds = %7
  %14 = ptrtoint ptr %2 to i64
  %15 = and i64 %14, -2
  %16 = inttoptr i64 %15 to ptr
  %17 = load i32, ptr %16, align 8, !tbaa !3
  %18 = icmp eq i32 %17, 2147483647
  br i1 %18, label %19, label %41

19:                                               ; preds = %13
  %20 = getelementptr inbounds nuw i8, ptr %1, i64 16
  %21 = load double, ptr %20, align 8, !tbaa !12
  %22 = getelementptr inbounds nuw i8, ptr %2, i64 16
  %23 = load double, ptr %22, align 8, !tbaa !12
  %24 = fsub double %21, %23
  %25 = fcmp olt double %24, 0.000000e+00
  %26 = fneg double %24
  %27 = select i1 %25, double %26, double %24
  %28 = fcmp olt double %27, %3
  br i1 %28, label %82, label %29

29:                                               ; preds = %19
  %30 = icmp sgt i32 %4, 0
  br i1 %30, label %31, label %82

31:                                               ; preds = %29
  %32 = getelementptr inbounds nuw i8, ptr %0, i64 608
  %33 = load ptr, ptr %32, align 8, !tbaa !48
  %34 = tail call i64 @fwrite(ptr nonnull @.str, i64 17, i64 1, ptr %33)
  %35 = load ptr, ptr %32, align 8, !tbaa !48
  %36 = load double, ptr %20, align 8, !tbaa !12
  %37 = tail call i32 (ptr, ptr, ...) @fprintf(ptr noundef %35, ptr noundef nonnull @.str.1, ptr noundef nonnull %1, double noundef %36) #10
  %38 = load ptr, ptr %32, align 8, !tbaa !48
  %39 = load double, ptr %22, align 8, !tbaa !12
  %40 = tail call i32 (ptr, ptr, ...) @fprintf(ptr noundef %38, ptr noundef nonnull @.str.2, ptr noundef nonnull %2, double noundef %39) #10
  br label %82

41:                                               ; preds = %13, %7
  %42 = tail call ptr @cuddCacheLookup2(ptr noundef %0, ptr noundef nonnull @Cudd_EqualSupNorm, ptr noundef %1, ptr noundef %2) #10
  %.not = icmp eq ptr %42, null
  br i1 %.not, label %43, label %82

43:                                               ; preds = %41
  %44 = load i32, ptr %1, align 8, !tbaa !3
  %45 = icmp eq i32 %44, 2147483647
  br i1 %45, label %52, label %46

46:                                               ; preds = %43
  %47 = getelementptr inbounds nuw i8, ptr %0, i64 312
  %48 = load ptr, ptr %47, align 8, !tbaa !47
  %49 = zext i32 %44 to i64
  %50 = getelementptr inbounds nuw i32, ptr %48, i64 %49
  %51 = load i32, ptr %50, align 4, !tbaa !11
  br label %52

52:                                               ; preds = %43, %46
  %53 = phi i32 [ %51, %46 ], [ 2147483647, %43 ]
  %54 = load i32, ptr %2, align 8, !tbaa !3
  %55 = icmp eq i32 %54, 2147483647
  br i1 %55, label %62, label %56

56:                                               ; preds = %52
  %57 = getelementptr inbounds nuw i8, ptr %0, i64 312
  %58 = load ptr, ptr %57, align 8, !tbaa !47
  %59 = zext i32 %54 to i64
  %60 = getelementptr inbounds nuw i32, ptr %58, i64 %59
  %61 = load i32, ptr %60, align 4, !tbaa !11
  br label %62

62:                                               ; preds = %52, %56
  %63 = phi i32 [ %61, %56 ], [ 2147483647, %52 ]
  %.not66 = icmp ugt i32 %53, %63
  br i1 %.not66, label %69, label %64

64:                                               ; preds = %62
  %65 = getelementptr inbounds nuw i8, ptr %1, i64 16
  %66 = load ptr, ptr %65, align 8, !tbaa !12
  %67 = getelementptr inbounds nuw i8, ptr %1, i64 24
  %68 = load ptr, ptr %67, align 8, !tbaa !12
  br label %69

69:                                               ; preds = %62, %64
  %.056 = phi ptr [ %68, %64 ], [ %1, %62 ]
  %.055 = phi ptr [ %66, %64 ], [ %1, %62 ]
  %.not67 = icmp ugt i32 %63, %53
  br i1 %.not67, label %75, label %70

70:                                               ; preds = %69
  %71 = getelementptr inbounds nuw i8, ptr %2, i64 16
  %72 = load ptr, ptr %71, align 8, !tbaa !12
  %73 = getelementptr inbounds nuw i8, ptr %2, i64 24
  %74 = load ptr, ptr %73, align 8, !tbaa !12
  br label %75

75:                                               ; preds = %69, %70
  %.058 = phi ptr [ %72, %70 ], [ %2, %69 ]
  %.057 = phi ptr [ %74, %70 ], [ %2, %69 ]
  %76 = tail call i32 @Cudd_EqualSupNorm(ptr noundef %0, ptr noundef %.055, ptr noundef %.058, double noundef %3, i32 noundef %4)
  %.not68 = icmp eq i32 %76, 0
  br i1 %.not68, label %82, label %77

77:                                               ; preds = %75
  %78 = tail call i32 @Cudd_EqualSupNorm(ptr noundef %0, ptr noundef %.056, ptr noundef %.057, double noundef %3, i32 noundef %4)
  %.not69 = icmp eq i32 %78, 0
  br i1 %.not69, label %82, label %79

79:                                               ; preds = %77
  %80 = getelementptr inbounds nuw i8, ptr %0, i64 40
  %81 = load ptr, ptr %80, align 8, !tbaa !15
  tail call void @cuddCacheInsert2(ptr noundef %0, ptr noundef nonnull @Cudd_EqualSupNorm, ptr noundef nonnull %1, ptr noundef nonnull %2, ptr noundef %81) #10
  br label %82

82:                                               ; preds = %77, %75, %41, %29, %31, %19, %5, %79
  %.0 = phi i32 [ 1, %79 ], [ 1, %5 ], [ 1, %19 ], [ 0, %31 ], [ 0, %29 ], [ 1, %41 ], [ 0, %75 ], [ 0, %77 ]
  ret i32 %.0
}